; Function Attrs: nofree norecurse nosync nounwind memory(read, inaccessiblemem: none) uwtable
define { <2 x float>, <2 x float> } @GetGlyphAtlasRec(ptr noundef readonly byval(%struct.Font) align 8 captures(none) %0, i32 noundef %1) local_unnamed_addr #18 {
  %3 = getelementptr inbounds nuw i8, ptr %0, i64 32
  %4 = load ptr, ptr %3, align 8
  %5 = load i32, ptr %0, align 8
  %6 = icmp sgt i32 %5, 0
  %7 = getelementptr inbounds nuw i8, ptr %0, i64 4
  %8 = load i32, ptr %7, align 4
  %9 = icmp sgt i32 %8, 0
  %or.cond.i.i = select i1 %6, i1 %9, i1 false
  %10 = icmp ne ptr %4, null
  %or.cond5.i.i = select i1 %or.cond.i.i, i1 %10, i1 false
  %11 = getelementptr inbounds nuw i8, ptr %0, i64 40
  %12 = load ptr, ptr %11, align 8
  %13 = icmp ne ptr %12, null
  %or.cond.i = select i1 %or.cond5.i.i, i1 %13, i1 false
  br i1 %or.cond.i, label %.preheader.i, label %GetGlyphIndex.exit

.preheader.i:                                     ; preds = %2
  %wide.trip.count.i = zext nneg i32 %8 to i64
  br label %14

14:                                               ; preds = %20, %.preheader.i
  %indvars.iv.i = phi i64 [ 0, %.preheader.i ], [ %indvars.iv.next.i, %20 ]
  %.01325.i = phi i32 [ 0, %.preheader.i ], [ %spec.select.i, %20 ]
  %15 = getelementptr inbounds nuw %struct.GlyphInfo, ptr %12, i64 %indvars.iv.i
  %16 = load i32, ptr %15, align 8
  %17 = icmp eq i32 %16, 63
  %18 = trunc nuw nsw i64 %indvars.iv.i to i32
  %spec.select.i = select i1 %17, i32 %18, i32 %.01325.i
  %19 = icmp eq i32 %16, %1
  br i1 %19, label %21, label %20

20:                                               ; preds = %14
  %indvars.iv.next.i = add nuw nsw i64 %indvars.iv.i, 1
  %exitcond.not.i = icmp eq i64 %indvars.iv.next.i, %wide.trip.count.i
  br i1 %exitcond.not.i, label %.thread.i, label %14

21:                                               ; preds = %14
  %22 = icmp eq i64 %indvars.iv.i, 0
  br i1 %22, label %.thread.i, label %GetGlyphIndex.exit

.thread.i:                                        ; preds = %20, %21
  %23 = load i32, ptr %12, align 8
  %.not.i = icmp eq i32 %23, %1
  %spec.select17.i = select i1 %.not.i, i32 0, i32 %spec.select.i
  br label %GetGlyphIndex.exit

GetGlyphIndex.exit:                               ; preds = %2, %21, %.thread.i
  %.016.i = phi i32 [ %18, %21 ], [ %spec.select17.i, %.thread.i ], [ 0, %2 ]
  %24 = sext i32 %.016.i to i64
  %25 = getelementptr inbounds %struct.Rectangle, ptr %4, i64 %24
  %.sroa.0.0.copyload = load <2 x float>, ptr %25, align 4
  %.sroa.3.0..sroa_idx = getelementptr inbounds nuw i8, ptr %25, i64 8
  %.sroa.3.0.copyload = load <2 x float>, ptr %.sroa.3.0..sroa_idx, align 4
  %.fca.0.insert = insertvalue { <2 x float>, <2 x float> } poison, <2 x float> %.sroa.0.0.copyload, 0
  %.fca.1.insert = insertvalue { <2 x float>, <2 x float> } %.fca.0.insert, <2 x float> %.sroa.3.0.copyload, 1
  ret { <2 x float>, <2 x float> } %.fca.1.insert
}